target datalayout = "e-m:e-p270:32:32-p271:32:32-p272:64:64-i64:64-i128:128-f80:128-n8:16:32:64-S128"
target triple = "x86_64-pc-linux-gnu"

%struct._zend_executor_globals = type { %struct._zval_struct, %struct._zval_struct, [32 x ptr], ptr, ptr, %struct._zend_array, %struct._zend_array, ptr, i32, i8, %struct._zval_struct, i32, ptr, ptr, ptr, ptr, ptr, ptr, i64, ptr, ptr, i32, ptr, i32, i64, i32, i32, i32, i8, i8, %struct.zend_atomic_bool_s, %struct.zend_atomic_bool_s, ptr, i64, ptr, ptr, %struct._zend_array, %struct._zend_array, i32, i8, %struct._zval_struct, %struct._zval_struct, %struct._zend_stack, %struct._zend_stack, %struct._zend_stack, ptr, i32, i32, i64, ptr, ptr, ptr, %struct._zend_objects_store, %struct._zend_lazy_objects_store, ptr, ptr, ptr, [3 x %struct._zend_op], ptr, i8, i8, i64, i32, i32, ptr, [16 x %struct._HashTableIterator], ptr, %union._zend_function, %struct._zend_op, %struct._zend_array, i64, %struct.zend_get_gc_buffer, ptr, ptr, ptr, i64, i8, i32, ptr, ptr, i64, %struct._zend_call_stack, i64, i64, %struct._zend_strtod_state, [6 x ptr] }
%struct.zend_atomic_bool_s = type { i8 }
%struct._zval_struct = type { %union._zend_value, %union.anon, %union.anon.2 }
%union._zend_value = type { i64 }
%union.anon = type { i32 }
%union.anon.2 = type { i32 }
%struct._zend_stack = type { i32, i32, i32, ptr }
%struct._zend_objects_store = type { ptr, i32, i32, i32 }
%struct._zend_lazy_objects_store = type { %struct._zend_array }
%struct._HashTableIterator = type { ptr, i32, i32 }
%union._zend_function = type { %struct._zend_op_array }
%struct._zend_op_array = type { i8, [3 x i8], i32, ptr, ptr, ptr, i32, i32, ptr, ptr, ptr, ptr, i32, ptr, i32, i32, i32, ptr, ptr, ptr, ptr, ptr, i32, i32, ptr, ptr, ptr, i32, i32, i32, i32, ptr, ptr, [6 x ptr] }
%struct._zend_op = type { ptr, %union._znode_op, %union._znode_op, %union._znode_op, i32, i32, i8, i8, i8, i8 }
%union._znode_op = type { i32 }
%struct._zend_array = type { %struct._zend_refcounted_h, %union.anon.4, i32, %union.anon.6, i32, i32, i32, i32, i64, ptr }
%struct._zend_refcounted_h = type { i32, %union.anon.3 }
%union.anon.3 = type { i32 }
%union.anon.4 = type { i32 }
%union.anon.6 = type { ptr }
%struct.zend_get_gc_buffer = type { ptr, ptr, ptr }
%struct._zend_call_stack = type { ptr, i64 }
%struct._zend_strtod_state = type { [8 x ptr], ptr, ptr }
%struct._zend_execute_data = type { ptr, ptr, ptr, ptr, %struct._zval_struct, ptr, ptr, ptr, ptr }
%struct._zend_object = type { %struct._zend_refcounted_h, i32, i32, ptr, ptr, ptr, [1 x %struct._zval_struct] }
%struct._php_sqlite3_stmt_object = type { ptr, ptr, i8, ptr, %struct._zend_object }

@executor_globals = external global %struct._zend_executor_globals, align 8
@.str.8 = private unnamed_addr constant [75 x i8] c"The SQLite3 object has not been correctly initialised or is already closed\00", align 1
@.str.38 = private unnamed_addr constant [79 x i8] c"The SQLite3Stmt object has not been correctly initialised or is already closed\00", align 1
@.str.39 = private unnamed_addr constant [30 x i8] c"Unable to reset statement: %s\00", align 1

; Function Attrs: inlinehint nounwind uwtable
define internal ptr @php_sqlite3_stmt_from_obj(ptr noundef %0) #2 {
  %2 = alloca ptr, align 8
  store ptr %0, ptr %2, align 8, !tbaa !67
  %3 = load ptr, ptr %2, align 8, !tbaa !67
  %4 = getelementptr inbounds i8, ptr %3, i64 -32
  ret ptr %4
}

; Function Attrs: nounwind uwtable
define hidden void @zim_SQLite3Stmt_reset(ptr noundef %0, ptr noundef %1) #0 {
  %3 = alloca ptr, align 8
  %4 = alloca ptr, align 8
  %5 = alloca ptr, align 8
  %6 = alloca ptr, align 8
  %7 = alloca i32, align 4
  store ptr %0, ptr %3, align 8, !tbaa !4
  store ptr %1, ptr %4, align 8, !tbaa !9
  call void @llvm.lifetime.start.p0(i64 8, ptr %5) #15
  call void @llvm.lifetime.start.p0(i64 8, ptr %6) #15
  %8 = load ptr, ptr %3, align 8, !tbaa !4
  %9 = getelementptr inbounds nuw %struct._zend_execute_data, ptr %8, i32 0, i32 4
  store ptr %9, ptr %6, align 8, !tbaa !9
  %10 = load ptr, ptr %6, align 8, !tbaa !9
  %11 = getelementptr inbounds nuw %struct._zval_struct, ptr %10, i32 0, i32 0
  %12 = load ptr, ptr %11, align 8, !tbaa !13
  %13 = call ptr @php_sqlite3_stmt_from_obj(ptr noundef %12)
  store ptr %13, ptr %5, align 8, !tbaa !83
  br label %14

14:                                               ; preds = %2
  %15 = load ptr, ptr %3, align 8, !tbaa !4
  %16 = getelementptr inbounds nuw %struct._zend_execute_data, ptr %15, i32 0, i32 4
  %17 = getelementptr inbounds nuw %struct._zval_struct, ptr %16, i32 0, i32 2
  %18 = load i32, ptr %17, align 4, !tbaa !13
  %19 = icmp ne i32 %18, 0
  %20 = xor i1 %19, true
  %21 = xor i1 %20, true
  %22 = zext i1 %21 to i32
  %23 = sext i32 %22 to i64
  %24 = call i64 @llvm.expect.i64(i64 %23, i64 0)
  %25 = icmp ne i64 %24, 0
  br i1 %25, label %26, label %27

26:                                               ; preds = %14
  call void @zend_wrong_parameters_none_error()
  store i32 1, ptr %7, align 4
  br label %93

27:                                               ; preds = %14
  br label %28

28:                                               ; preds = %27
  br label %29

29:                                               ; preds = %28
  %30 = load ptr, ptr %5, align 8, !tbaa !83
  %31 = getelementptr inbounds nuw %struct._php_sqlite3_stmt_object, ptr %30, i32 0, i32 1
  %32 = load ptr, ptr %31, align 8, !tbaa !85
  %33 = icmp ne ptr %32, null
  br i1 %33, label %34, label %39

34:                                               ; preds = %29
  %35 = load ptr, ptr %5, align 8, !tbaa !83
  %36 = getelementptr inbounds nuw %struct._php_sqlite3_stmt_object, ptr %35, i32 0, i32 2
  %37 = load i8, ptr %36, align 8, !tbaa !88, !range !59, !noundef !60
  %38 = trunc i8 %37 to i1
  br i1 %38, label %45, label %39

39:                                               ; preds = %34, %29
  call void (ptr, ptr, ...) @zend_throw_error(ptr noundef null, ptr noundef @.str.8)
  br label %40

40:                                               ; preds = %39
  %41 = load ptr, ptr getelementptr inbounds nuw (%struct._zend_executor_globals, ptr @executor_globals, i32 0, i32 54), align 8, !tbaa !16
  %42 = icmp ne ptr %41, null
  call void @llvm.assume(i1 %42)
  store i32 1, ptr %7, align 4
  br label %93

43:                                               ; No predecessors!
  br label %44

44:                                               ; preds = %43
  br label %45

45:                                               ; preds = %44, %34
  %46 = load ptr, ptr %5, align 8, !tbaa !83
  %47 = getelementptr inbounds nuw %struct._php_sqlite3_stmt_object, ptr %46, i32 0, i32 0
  %48 = load ptr, ptr %47, align 8, !tbaa !102
  %49 = icmp ne ptr %48, null
  br i1 %49, label %56, label %50

50:                                               ; preds = %45
  call void (ptr, ptr, ...) @zend_throw_error(ptr noundef null, ptr noundef @.str.38)
  br label %51

51:                                               ; preds = %50
  %52 = load ptr, ptr getelementptr inbounds nuw (%struct._zend_executor_globals, ptr @executor_globals, i32 0, i32 54), align 8, !tbaa !16
  %53 = icmp ne ptr %52, null
  call void @llvm.assume(i1 %53)
  store i32 1, ptr %7, align 4
  br label %93

54:                                               ; No predecessors!
  br label %55

55:                                               ; preds = %54
  br label %56

56:                                               ; preds = %55, %45
  %57 = load ptr, ptr %5, align 8, !tbaa !83
  %58 = getelementptr inbounds nuw %struct._php_sqlite3_stmt_object, ptr %57, i32 0, i32 0
  %59 = load ptr, ptr %58, align 8, !tbaa !102
  %60 = call i32 @sqlite3_reset(ptr noundef %59)
  %61 = icmp ne i32 %60, 0
  br i1 %61, label %62, label %84

62:                                               ; preds = %56
  %63 = load ptr, ptr %5, align 8, !tbaa !83
  %64 = getelementptr inbounds nuw %struct._php_sqlite3_stmt_object, ptr %63, i32 0, i32 1
  %65 = load ptr, ptr %64, align 8, !tbaa !85
  %66 = load ptr, ptr %5, align 8, !tbaa !83
  %67 = getelementptr inbounds nuw %struct._php_sqlite3_stmt_object, ptr %66, i32 0, i32 0
  %68 = load ptr, ptr %67, align 8, !tbaa !102
  %69 = call ptr @sqlite3_db_handle(ptr noundef %68)
  %70 = call i32 @sqlite3_errcode(ptr noundef %69)
  %71 = load ptr, ptr %5, align 8, !tbaa !83
  %72 = getelementptr inbounds nuw %struct._php_sqlite3_stmt_object, ptr %71, i32 0, i32 0
  %73 = load ptr, ptr %72, align 8, !tbaa !102
  %74 = call ptr @sqlite3_db_handle(ptr noundef %73)
  %75 = call ptr @sqlite3_errmsg(ptr noundef %74)
  call void (ptr, i32, ptr, ...) @php_sqlite3_error(ptr noundef %65, i32 noundef %70, ptr noundef @.str.39, ptr noundef %75)
  br label %76

76:                                               ; preds = %62
  br label %77

77:                                               ; preds = %76
  %78 = load ptr, ptr %4, align 8, !tbaa !9
  %79 = getelementptr inbounds nuw %struct._zval_struct, ptr %78, i32 0, i32 1
  store i32 2, ptr %79, align 8, !tbaa !13
  br label %80

80:                                               ; preds = %77
  br label %81

81:                                               ; preds = %80
  store i32 1, ptr %7, align 4
  br label %93

82:                                               ; No predecessors!
  br label %83

83:                                               ; preds = %82
  br label %84

84:                                               ; preds = %83, %56
  br label %85

85:                                               ; preds = %84
  br label %86

86:                                               ; preds = %85
  %87 = load ptr, ptr %4, align 8, !tbaa !9
  %88 = getelementptr inbounds nuw %struct._zval_struct, ptr %87, i32 0, i32 1
  store i32 3, ptr %88, align 8, !tbaa !13
  br label %89

89:                                               ; preds = %86
  br label %90

90:                                               ; preds = %89
  store i32 1, ptr %7, align 4
  br label %93

91:                                               ; No predecessors!
  br label %92

92:                                               ; preds = %91
  store i32 0, ptr %7, align 4
  br label %93

93:                                               ; preds = %92, %90, %81, %51, %40, %26
  call void @llvm.lifetime.end.p0(i64 8, ptr %6) #15
  call void @llvm.lifetime.end.p0(i64 8, ptr %5) #15
  %94 = load i32, ptr %7, align 4
  switch i32 %94, label %96 [
    i32 0, label %95
    i32 1, label %95
  ]

95:                                               ; preds = %93, %93
  ret void

96:                                               ; preds = %93
  unreachable
}