; Function Attrs: nounwind uwtable
define hidden void @zim_SQLite3Stmt_reset(ptr noundef readonly captures(none) %0, ptr noundef writeonly captures(none) %1) #0 {
  %3 = getelementptr inbounds nuw i8, ptr %0, i64 32
  %4 = load ptr, ptr %3, align 8, !tbaa !8
  %5 = getelementptr inbounds i8, ptr %4, i64 -32
  %6 = getelementptr inbounds nuw i8, ptr %0, i64 44
  %7 = load i32, ptr %6, align 4, !tbaa !8
  %.not = icmp eq i32 %7, 0
  br i1 %.not, label %9, label %8, !prof !75

8:                                                ; preds = %2
  tail call void @zend_wrong_parameters_none_error() #17
  br label %37

9:                                                ; preds = %2
  %10 = getelementptr inbounds i8, ptr %4, i64 -24
  %11 = load ptr, ptr %10, align 8, !tbaa !84
  %.not12 = icmp eq ptr %11, null
  br i1 %.not12, label %16, label %12

12:                                               ; preds = %9
  %13 = getelementptr inbounds i8, ptr %4, i64 -16
  %14 = load i8, ptr %13, align 8, !tbaa !88, !range !55, !noundef !56
  %15 = trunc nuw i8 %14 to i1
  br i1 %15, label %19, label %16

16:                                               ; preds = %12, %9
  tail call void (ptr, ptr, ...) @zend_throw_error(ptr noundef null, ptr noundef nonnull @.str.8) #17
  %17 = load ptr, ptr getelementptr inbounds nuw (i8, ptr @executor_globals, i64 960), align 8, !tbaa !9
  %18 = icmp ne ptr %17, null
  tail call void @llvm.assume(i1 %18)
  br label %37

19:                                               ; preds = %12
  %20 = load ptr, ptr %5, align 8, !tbaa !100
  %.not13 = icmp eq ptr %20, null
  br i1 %.not13, label %21, label %24

21:                                               ; preds = %19
  tail call void (ptr, ptr, ...) @zend_throw_error(ptr noundef null, ptr noundef nonnull @.str.38) #17
  %22 = load ptr, ptr getelementptr inbounds nuw (i8, ptr @executor_globals, i64 960), align 8, !tbaa !9
  %23 = icmp ne ptr %22, null
  tail call void @llvm.assume(i1 %23)
  br label %37

24:                                               ; preds = %19
  %25 = tail call i32 @sqlite3_reset(ptr noundef nonnull %20) #17
  %.not14 = icmp eq i32 %25, 0
  br i1 %.not14, label %35, label %26

26:                                               ; preds = %24
  %27 = load ptr, ptr %10, align 8, !tbaa !84
  %28 = load ptr, ptr %5, align 8, !tbaa !100
  %29 = tail call ptr @sqlite3_db_handle(ptr noundef %28) #17
  %30 = tail call i32 @sqlite3_errcode(ptr noundef %29) #17
  %31 = load ptr, ptr %5, align 8, !tbaa !100
  %32 = tail call ptr @sqlite3_db_handle(ptr noundef %31) #17
  %33 = tail call ptr @sqlite3_errmsg(ptr noundef %32) #17
  tail call void (ptr, i32, ptr, ...) @php_sqlite3_error(ptr noundef %27, i32 noundef %30, ptr noundef nonnull @.str.39, ptr noundef %33)
  %34 = getelementptr inbounds nuw i8, ptr %1, i64 8
  store i32 2, ptr %34, align 8, !tbaa !8
  br label %37

35:                                               ; preds = %24
  %36 = getelementptr inbounds nuw i8, ptr %1, i64 8
  store i32 3, ptr %36, align 8, !tbaa !8
  br label %37

37:                                               ; preds = %35, %26, %21, %16, %8
  ret void
}